; Function Attrs: mustprogress uwtable
define void @_ZN32pxrInternal_v0_24__pxrReserved__22UsdSkel_SkelDefinition3NewERKNS_15UsdSkelSkeletonE(ptr dead_on_unwind noalias writable sret(%"class.pxrInternal_v0_24__pxrReserved__::TfRefPtr") align 8 %0, ptr noundef nonnull align 8 dereferenceable(24) %1) local_unnamed_addr #0 align 2 personality ptr @__gxx_personality_v0 {
  %3 = getelementptr inbounds nuw i8, ptr %1, i64 8
  %4 = load ptr, ptr %3, align 8
  %.not.i.i = icmp eq ptr %4, null
  br i1 %.not.i.i, label %_ZNK32pxrInternal_v0_24__pxrReserved__13UsdSchemaBasecvbEv.exit.thread, label %_ZNK32pxrInternal_v0_24__pxrReserved__18Usd_PrimDataHandlecvbEv.exit.i

_ZNK32pxrInternal_v0_24__pxrReserved__18Usd_PrimDataHandlecvbEv.exit.i: ; preds = %2
  %5 = getelementptr inbounds nuw i8, ptr %4, i64 56
  %6 = load i64, ptr %5, align 8
  %7 = and i64 %6, 2048
  %.not3.i.i = icmp eq i64 %7, 0
  br i1 %.not3.i.i, label %_ZNK32pxrInternal_v0_24__pxrReserved__13UsdSchemaBasecvbEv.exit, label %_ZNK32pxrInternal_v0_24__pxrReserved__13UsdSchemaBasecvbEv.exit.thread

_ZNK32pxrInternal_v0_24__pxrReserved__13UsdSchemaBasecvbEv.exit: ; preds = %_ZNK32pxrInternal_v0_24__pxrReserved__18Usd_PrimDataHandlecvbEv.exit.i
  %8 = load ptr, ptr %1, align 8
  %9 = getelementptr inbounds i8, ptr %8, i64 32
  %10 = load ptr, ptr %9, align 8
  %11 = tail call noundef zeroext i1 %10(ptr noundef nonnull align 8 dereferenceable(24) %1)
  br i1 %11, label %12, label %_ZNK32pxrInternal_v0_24__pxrReserved__13UsdSchemaBasecvbEv.exit.thread

12:                                               ; preds = %_ZNK32pxrInternal_v0_24__pxrReserved__13UsdSchemaBasecvbEv.exit
  %13 = tail call noalias noundef nonnull dereferenceable(496) ptr @_Znwm(i64 noundef 496) #15
  invoke void @_ZN32pxrInternal_v0_24__pxrReserved__22UsdSkel_SkelDefinitionC1Ev(ptr noundef nonnull align 8 dereferenceable(496) %13)
          to label %14 unwind label %16

14:                                               ; preds = %12
  store ptr %13, ptr %0, align 8, !alias.scope !4
  %15 = invoke noundef zeroext i1 @_ZN32pxrInternal_v0_24__pxrReserved__22UsdSkel_SkelDefinition5_InitERKNS_15UsdSkelSkeletonE(ptr noundef nonnull align 8 dereferenceable(496) %13, ptr noundef nonnull align 8 dereferenceable(24) %1)
          to label %20 unwind label %18

16:                                               ; preds = %12
  %17 = landingpad { ptr, i32 }
          cleanup
  tail call void @_ZdlPvm(ptr noundef nonnull %13, i64 noundef 496) #16
  br label %44

18:                                               ; preds = %14
  %19 = landingpad { ptr, i32 }
          cleanup
  tail call void @_ZN32pxrInternal_v0_24__pxrReserved__8TfRefPtrINS_22UsdSkel_SkelDefinitionEED2Ev(ptr noundef nonnull align 8 dereferenceable(8) %0) #17
  br label %44

20:                                               ; preds = %14
  br i1 %15, label %_ZN32pxrInternal_v0_24__pxrReserved__8TfRefPtrINS_22UsdSkel_SkelDefinitionEED2Ev.exit, label %21

21:                                               ; preds = %20
  %22 = getelementptr inbounds nuw i8, ptr %13, i64 8
  %23 = load atomic i32, ptr %22 monotonic, align 4
  %24 = icmp slt i32 %23, 0
  br i1 %24, label %25, label %_ZN32pxrInternal_v0_24__pxrReserved__30Tf_RefPtr_UniqueChangedCounter9RemoveRefEPKNS_9TfRefBaseE.exit.i.i

25:                                               ; preds = %21
  %.not68.i.i.i = icmp eq i32 %23, -2
  br i1 %.not68.i.i.i, label %33, label %26

26:                                               ; preds = %25
  %27 = add nsw i32 %23, 1
  %28 = cmpxchg weak ptr %22, i32 %23, i32 %27 release monotonic, align 4
  %29 = extractvalue { i32, i1 } %28, 1
  %30 = extractvalue { i32, i1 } %28, 0
  br i1 %29, label %31, label %33

31:                                               ; preds = %26
  %32 = icmp eq i32 %23, -1
  br i1 %32, label %37, label %_ZNK32pxrInternal_v0_24__pxrReserved__13UsdSchemaBasecvbEv.exit.thread

33:                                               ; preds = %26, %25
  %.067.i.i.i = phi i32 [ %30, %26 ], [ -2, %25 ]
  %34 = invoke noundef zeroext i1 @_ZN32pxrInternal_v0_24__pxrReserved__30Tf_RefPtr_UniqueChangedCounter21_RemoveRefMaybeLockedEPKNS_9TfRefBaseEi(ptr noundef nonnull %13, i32 noundef %.067.i.i.i)
          to label %.noexc.i unwind label %41

.noexc.i:                                         ; preds = %33
  br i1 %34, label %37, label %_ZNK32pxrInternal_v0_24__pxrReserved__13UsdSchemaBasecvbEv.exit.thread

_ZN32pxrInternal_v0_24__pxrReserved__30Tf_RefPtr_UniqueChangedCounter9RemoveRefEPKNS_9TfRefBaseE.exit.i.i: ; preds = %21
  %35 = atomicrmw sub ptr %22, i32 1 release, align 4
  %36 = icmp eq i32 %35, 1
  br i1 %36, label %37, label %_ZNK32pxrInternal_v0_24__pxrReserved__13UsdSchemaBasecvbEv.exit.thread

37:                                               ; preds = %_ZN32pxrInternal_v0_24__pxrReserved__30Tf_RefPtr_UniqueChangedCounter9RemoveRefEPKNS_9TfRefBaseE.exit.i.i, %.noexc.i, %31
  %38 = load ptr, ptr %13, align 8
  %39 = getelementptr inbounds i8, ptr %38, i64 8
  %40 = load ptr, ptr %39, align 8
  tail call void %40(ptr noundef nonnull align 8 dereferenceable(12) %13) #17
  br label %_ZNK32pxrInternal_v0_24__pxrReserved__13UsdSchemaBasecvbEv.exit.thread

41:                                               ; preds = %33
  %42 = landingpad { ptr, i32 }
          catch ptr null
  %43 = extractvalue { ptr, i32 } %42, 0
  tail call void @__clang_call_terminate(ptr %43) #18
  unreachable

_ZNK32pxrInternal_v0_24__pxrReserved__13UsdSchemaBasecvbEv.exit.thread: ; preds = %31, %.noexc.i, %_ZN32pxrInternal_v0_24__pxrReserved__30Tf_RefPtr_UniqueChangedCounter9RemoveRefEPKNS_9TfRefBaseE.exit.i.i, %37, %2, %_ZNK32pxrInternal_v0_24__pxrReserved__18Usd_PrimDataHandlecvbEv.exit.i, %_ZNK32pxrInternal_v0_24__pxrReserved__13UsdSchemaBasecvbEv.exit
  store ptr null, ptr %0, align 8
  br label %_ZN32pxrInternal_v0_24__pxrReserved__8TfRefPtrINS_22UsdSkel_SkelDefinitionEED2Ev.exit

_ZN32pxrInternal_v0_24__pxrReserved__8TfRefPtrINS_22UsdSkel_SkelDefinitionEED2Ev.exit: ; preds = %20, %_ZNK32pxrInternal_v0_24__pxrReserved__13UsdSchemaBasecvbEv.exit.thread
  ret void

44:                                               ; preds = %18, %16
  %.pn = phi { ptr, i32 } [ %19, %18 ], [ %17, %16 ]
  resume { ptr, i32 } %.pn
}